GAS LISTING exp0204.s 			page 1


   1              		.file	"exp0204.c"
   2              		.intel_syntax noprefix
   3              		.text
   4              		.globl	main
   5              		.type	main, @function
   6              	main:
   7              	.LFB23:
   8              		.cfi_startproc
   9 0000 4881EC88 		sub	rsp, 392
   9      010000
  10              		.cfi_def_cfa_offset 400
  11 0007 64488B04 		mov	rax, QWORD PTR fs:40
  11      25280000 
  11      00
  12 0010 48898424 		mov	QWORD PTR [rsp+376], rax
  12      78010000 
  13 0018 31C0     		xor	eax, eax
  14 001a 48B83130 		movabs	rax, 3539882223192780849
  14      207C2030 
  14      2031
  15 0024 48898424 		mov	QWORD PTR [rsp+288], rax
  15      20010000 
  16 002c 48B82032 		movabs	rax, 3828116996166267424
  16      20332034 
  16      2035
  17 0036 48898424 		mov	QWORD PTR [rsp+296], rax
  17      28010000 
  18 003e 48B82036 		movabs	rax, 4116351770431600160
  18      20372038 
  18      2039
  19 0048 48898424 		mov	QWORD PTR [rsp+304], rax
  19      30010000 
  20 0050 48B82041 		movabs	rax, 4908997399661265184
  20      20422043 
  20      2044
  21 005a 48898424 		mov	QWORD PTR [rsp+312], rax
  21      38010000 
  22 0062 C7842440 		mov	DWORD PTR [rsp+320], 1176519968
  22      01000020 
  22      452046
  23 006d C6842444 		mov	BYTE PTR [rsp+324], 0
  23      01000000 
  24 0075 48B82D2D 		movabs	rax, 3255307721844469037
  24      202B202D 
  24      2D2D
  25 007f 48898424 		mov	QWORD PTR [rsp+336], rax
  25      50010000 
  26 0087 48B82D2D 		movabs	rax, 3255307777713450285
  26      2D2D2D2D 
  26      2D2D
  27 0091 48898424 		mov	QWORD PTR [rsp+344], rax
  27      58010000 
  28 0099 48898424 		mov	QWORD PTR [rsp+352], rax
  28      60010000 
  29 00a1 48898424 		mov	QWORD PTR [rsp+360], rax
  29      68010000 
  30 00a9 C7842470 		mov	DWORD PTR [rsp+368], 757935405
GAS LISTING exp0204.s 			page 2


  30      0100002D 
  30      2D2D2D
  31 00b4 66C78424 		mov	WORD PTR [rsp+372], 45
  31      74010000 
  31      2D00
  32 00be 48B83230 		movabs	rax, 2315167007338672178
  32      207C2020 
  32      2120
  33 00c8 48894424 		mov	QWORD PTR [rsp+48], rax
  33      30
  34 00cd 48B82220 		movabs	rax, 2316292922882072610
  34      23202420 
  34      2520
  35 00d7 48894424 		mov	QWORD PTR [rsp+56], rax
  35      38
  36 00dc 48B82620 		movabs	rax, 2317418839969046566
  36      27202820 
  36      2920
  37 00e6 48894424 		mov	QWORD PTR [rsp+64], rax
  37      40
  38 00eb 48B82A20 		movabs	rax, 2318544757056020522
  38      2B202C20 
  38      2D20
  39 00f5 48894424 		mov	QWORD PTR [rsp+72], rax
  39      48
  40 00fa C7442450 		mov	DWORD PTR [rsp+80], 3088430
  40      2E202F00 
  41 0102 48B83330 		movabs	rax, 2319670675685519411
  41      207C3020 
  41      3120
  42 010c 48894424 		mov	QWORD PTR [rsp+96], rax
  42      60
  43 0111 48B83220 		movabs	rax, 2320796591229968434
  43      33203420 
  43      3520
  44 011b 48894424 		mov	QWORD PTR [rsp+104], rax
  44      68
  45 0120 48B83620 		movabs	rax, 2321922508316942390
  45      37203820 
  45      3920
  46 012a 48894424 		mov	QWORD PTR [rsp+112], rax
  46      70
  47 012f 48B83A20 		movabs	rax, 2323048425403916346
  47      3B203C20 
  47      3D20
  48 0139 48894424 		mov	QWORD PTR [rsp+120], rax
  48      78
  49 013e C7842480 		mov	DWORD PTR [rsp+128], 4137022
  49      0000003E 
  49      203F00
  50 0149 48B83430 		movabs	rax, 2324174344032366644
  50      207C4020 
  50      4120
  51 0153 48898424 		mov	QWORD PTR [rsp+144], rax
  51      90000000 
  52 015b 48B84220 		movabs	rax, 2325300259577864258
  52      43204420 
GAS LISTING exp0204.s 			page 3


  52      4520
  53 0165 48898424 		mov	QWORD PTR [rsp+152], rax
  53      98000000 
  54 016d 48B84620 		movabs	rax, 2326426176664838214
  54      47204820 
  54      4920
  55 0177 48898424 		mov	QWORD PTR [rsp+160], rax
  55      A0000000 
  56 017f 48B84A20 		movabs	rax, 2327552093751812170
  56      4B204C20 
  56      4D20
  57 0189 48898424 		mov	QWORD PTR [rsp+168], rax
  57      A8000000 
  58 0191 C78424B0 		mov	DWORD PTR [rsp+176], 5185614
  58      0000004E 
  58      204F00
  59 019c 48B83530 		movabs	rax, 2328678012379213877
  59      207C5020 
  59      5120
  60 01a6 48890424 		mov	QWORD PTR [rsp], rax
  61 01aa 48B85220 		movabs	rax, 2329803927925760082
  61      53205420 
  61      5520
  62 01b4 48894424 		mov	QWORD PTR [rsp+8], rax
  62      08
  63 01b9 48B85620 		movabs	rax, 2330929845012734038
  63      57205820 
  63      5920
  64 01c3 48894424 		mov	QWORD PTR [rsp+16], rax
  64      10
  65 01c8 48B85A20 		movabs	rax, 6782523431383146586
  65      5B20205D 
  65      205E
  66 01d2 48894424 		mov	QWORD PTR [rsp+24], rax
  66      18
  67 01d7 66C74424 		mov	WORD PTR [rsp+32], 24352
  67      20205F
  68 01de C6442422 		mov	BYTE PTR [rsp+34], 0
  68      00
  69 01e3 48B83630 		movabs	rax, 2333181680726061110
  69      207C6020 
  69      6120
  70 01ed 48898424 		mov	QWORD PTR [rsp+192], rax
  70      C0000000 
  71 01f5 48B86220 		movabs	rax, 2334307596273655906
  71      63206420 
  71      6520
  72 01ff 48898424 		mov	QWORD PTR [rsp+200], rax
  72      C8000000 
  73 0207 48B86620 		movabs	rax, 2335433513360629862
  73      67206820 
  73      6920
  74 0211 48898424 		mov	QWORD PTR [rsp+208], rax
  74      D0000000 
  75 0219 48B86A20 		movabs	rax, 2336559430447603818
  75      6B206C20 
  75      6D20
GAS LISTING exp0204.s 			page 4


  76 0223 48898424 		mov	QWORD PTR [rsp+216], rax
  76      D8000000 
  77 022b C78424E0 		mov	DWORD PTR [rsp+224], 7282798
  77      0000006E 
  77      206F00
  78 0236 48B83730 		movabs	rax, 2337685349072908343
  78      207C7020 
  78      7120
  79 0240 48898424 		mov	QWORD PTR [rsp+240], rax
  79      F0000000 
  80 0248 48B87220 		movabs	rax, 2338811264621551730
  80      73207420 
  80      7520
  81 0252 48898424 		mov	QWORD PTR [rsp+248], rax
  81      F8000000 
  82 025a 48B87620 		movabs	rax, 2339937181708525686
  82      77207820 
  82      7920
  83 0264 48898424 		mov	QWORD PTR [rsp+256], rax
  83      00010000 
  84 026c 48B87A20 		movabs	rax, 2341063098795499642
  84      7B207C20 
  84      7D20
  85 0276 48898424 		mov	QWORD PTR [rsp+264], rax
  85      08010000 
  86 027e C7842410 		mov	DWORD PTR [rsp+272], 2105470
  86      0100007E 
  86      202000
  87 0289 488DBC24 		lea	rdi, [rsp+288]
  87      20010000 
  88 0291 E8000000 		call	puts
  88      00
  89 0296 488DBC24 		lea	rdi, [rsp+336]
  89      50010000 
  90 029e E8000000 		call	puts
  90      00
  91 02a3 488D7C24 		lea	rdi, [rsp+48]
  91      30
  92 02a8 E8000000 		call	puts
  92      00
  93 02ad 488D7C24 		lea	rdi, [rsp+96]
  93      60
  94 02b2 E8000000 		call	puts
  94      00
  95 02b7 488DBC24 		lea	rdi, [rsp+144]
  95      90000000 
  96 02bf E8000000 		call	puts
  96      00
  97 02c4 4889E7   		mov	rdi, rsp
  98 02c7 E8000000 		call	puts
  98      00
  99 02cc 488DBC24 		lea	rdi, [rsp+192]
  99      C0000000 
 100 02d4 E8000000 		call	puts
 100      00
 101 02d9 488DBC24 		lea	rdi, [rsp+240]
 101      F0000000 
GAS LISTING exp0204.s 			page 5


 102 02e1 E8000000 		call	puts
 102      00
 103 02e6 488B9424 		mov	rdx, QWORD PTR [rsp+376]
 103      78010000 
 104 02ee 64483314 		xor	rdx, QWORD PTR fs:40
 104      25280000 
 104      00
 105 02f7 7405     		je	.L2
 106 02f9 E8000000 		call	__stack_chk_fail
 106      00
 107              	.L2:
 108 02fe B8000000 		mov	eax, 0
 108      00
 109 0303 4881C488 		add	rsp, 392
 109      010000
 110              		.cfi_def_cfa_offset 8
 111 030a C3       		ret
 112              		.cfi_endproc
 113              	.LFE23:
 114              		.size	main, .-main
 115              		.ident	"GCC: (Ubuntu 5.4.0-6ubuntu1~16.04.12) 5.4.0 20160609"
 116              		.section	.note.GNU-stack,"",@progbits
